target datalayout = "e-m:e-p270:32:32-p271:32:32-p272:64:64-i64:64-i128:128-f80:128-n8:16:32:64-S128"
target triple = "x86_64-pc-linux-gnu"

%struct.jpeg_compress_struct = type { ptr, ptr, ptr, ptr, i32, i32, ptr, i32, i32, i32, i32, double, i32, i32, i32, ptr, [4 x ptr], [4 x ptr], [4 x ptr], [16 x i8], [16 x i8], [16 x i8], i32, ptr, i32, i32, i32, i32, i32, i32, i32, i32, i32, i8, i8, i8, i16, i16, i32, i32, i32, i32, i32, i32, i32, [4 x ptr], i32, i32, i32, [10 x i32], i32, i32, i32, i32, ptr, ptr, ptr, ptr, ptr, ptr, ptr, ptr, ptr, ptr, i32 }
%struct.lhuff_entropy_encoder = type { %struct.jpeg_entropy_encoder, %struct.savable_state, i32, i32, [4 x ptr], [10 x ptr], [4 x ptr], [10 x ptr], [10 x ptr], i32, [10 x %struct.lhe_input_ptr_info], [10 x i32] }
%struct.jpeg_entropy_encoder = type { ptr, ptr, ptr, ptr }
%struct.savable_state = type { i64, i32 }
%struct.lhe_input_ptr_info = type { i32, i32, i32 }
%struct.jpeg_component_info = type { i32, i32, i32, i32, i32, i32, i32, i32, i32, i32, i32, i32, i32, i32, i32, i32, i32, i32, i32, ptr, ptr }

; Function Attrs: nounwind uwtable
define internal void @finish_pass_gather(ptr noundef %0) #0 {
  %2 = alloca ptr, align 8
  %3 = alloca ptr, align 8
  %4 = alloca i32, align 4
  %5 = alloca i32, align 4
  %6 = alloca ptr, align 8
  %7 = alloca ptr, align 8
  %8 = alloca [4 x i32], align 16
  store ptr %0, ptr %2, align 8, !tbaa !3
  call void @llvm.lifetime.start.p0(i64 8, ptr %3) #6
  %9 = load ptr, ptr %2, align 8, !tbaa !3
  %10 = getelementptr inbounds nuw %struct.jpeg_compress_struct, ptr %9, i32 0, i32 62
  %11 = load ptr, ptr %10, align 8, !tbaa !30
  store ptr %11, ptr %3, align 8, !tbaa !29
  call void @llvm.lifetime.start.p0(i64 4, ptr %4) #6
  call void @llvm.lifetime.start.p0(i64 4, ptr %5) #6
  call void @llvm.lifetime.start.p0(i64 8, ptr %6) #6
  call void @llvm.lifetime.start.p0(i64 8, ptr %7) #6
  call void @llvm.lifetime.start.p0(i64 16, ptr %8) #6
  %12 = getelementptr inbounds [4 x i32], ptr %8, i64 0, i64 0
  call void @llvm.memset.p0.i64(ptr align 16 %12, i8 0, i64 16, i1 false)
  store i32 0, ptr %4, align 4, !tbaa !35
  br label %13

13:                                               ; preds = %61, %1
  %14 = load i32, ptr %4, align 4, !tbaa !35
  %15 = load ptr, ptr %2, align 8, !tbaa !3
  %16 = getelementptr inbounds nuw %struct.jpeg_compress_struct, ptr %15, i32 0, i32 44
  %17 = load i32, ptr %16, align 4, !tbaa !42
  %18 = icmp slt i32 %14, %17
  br i1 %18, label %19, label %64

19:                                               ; preds = %13
  %20 = load ptr, ptr %2, align 8, !tbaa !3
  %21 = getelementptr inbounds nuw %struct.jpeg_compress_struct, ptr %20, i32 0, i32 45
  %22 = load i32, ptr %4, align 4, !tbaa !35
  %23 = sext i32 %22 to i64
  %24 = getelementptr inbounds [4 x ptr], ptr %21, i64 0, i64 %23
  %25 = load ptr, ptr %24, align 8, !tbaa !29
  store ptr %25, ptr %6, align 8, !tbaa !29
  %26 = load ptr, ptr %6, align 8, !tbaa !29
  %27 = getelementptr inbounds nuw %struct.jpeg_component_info, ptr %26, i32 0, i32 5
  %28 = load i32, ptr %27, align 4, !tbaa !43
  store i32 %28, ptr %5, align 4, !tbaa !35
  %29 = load i32, ptr %5, align 4, !tbaa !35
  %30 = sext i32 %29 to i64
  %31 = getelementptr inbounds [4 x i32], ptr %8, i64 0, i64 %30
  %32 = load i32, ptr %31, align 4, !tbaa !35
  %33 = icmp ne i32 %32, 0
  br i1 %33, label %60, label %34

34:                                               ; preds = %19
  %35 = load ptr, ptr %2, align 8, !tbaa !3
  %36 = getelementptr inbounds nuw %struct.jpeg_compress_struct, ptr %35, i32 0, i32 17
  %37 = load i32, ptr %5, align 4, !tbaa !35
  %38 = sext i32 %37 to i64
  %39 = getelementptr inbounds [4 x ptr], ptr %36, i64 0, i64 %38
  store ptr %39, ptr %7, align 8, !tbaa !29
  %40 = load ptr, ptr %7, align 8, !tbaa !29
  %41 = load ptr, ptr %40, align 8, !tbaa !29
  %42 = icmp eq ptr %41, null
  br i1 %42, label %43, label %47

43:                                               ; preds = %34
  %44 = load ptr, ptr %2, align 8, !tbaa !3
  %45 = call ptr @jpeg_alloc_huff_table(ptr noundef %44)
  %46 = load ptr, ptr %7, align 8, !tbaa !29
  store ptr %45, ptr %46, align 8, !tbaa !29
  br label %47

47:                                               ; preds = %43, %34
  %48 = load ptr, ptr %2, align 8, !tbaa !3
  %49 = load ptr, ptr %7, align 8, !tbaa !29
  %50 = load ptr, ptr %49, align 8, !tbaa !29
  %51 = load ptr, ptr %3, align 8, !tbaa !29
  %52 = getelementptr inbounds nuw %struct.lhuff_entropy_encoder, ptr %51, i32 0, i32 6
  %53 = load i32, ptr %5, align 4, !tbaa !35
  %54 = sext i32 %53 to i64
  %55 = getelementptr inbounds [4 x ptr], ptr %52, i64 0, i64 %54
  %56 = load ptr, ptr %55, align 8, !tbaa !36
  call void @jpeg_gen_optimal_table(ptr noundef %48, ptr noundef %50, ptr noundef %56)
  %57 = load i32, ptr %5, align 4, !tbaa !35
  %58 = sext i32 %57 to i64
  %59 = getelementptr inbounds [4 x i32], ptr %8, i64 0, i64 %58
  store i32 1, ptr %59, align 4, !tbaa !35
  br label %60

60:                                               ; preds = %47, %19
  br label %61

61:                                               ; preds = %60
  %62 = load i32, ptr %4, align 4, !tbaa !35
  %63 = add nsw i32 %62, 1
  store i32 %63, ptr %4, align 4, !tbaa !35
  br label %13, !llvm.loop !80

64:                                               ; preds = %13
  call void @llvm.lifetime.end.p0(i64 16, ptr %8) #6
  call void @llvm.lifetime.end.p0(i64 8, ptr %7) #6
  call void @llvm.lifetime.end.p0(i64 8, ptr %6) #6
  call void @llvm.lifetime.end.p0(i64 4, ptr %5) #6
  call void @llvm.lifetime.end.p0(i64 4, ptr %4) #6
  call void @llvm.lifetime.end.p0(i64 8, ptr %3) #6
  ret void
}