; Function Attrs: nounwind uwtable
define internal void @finish_pass_gather(ptr noundef %0) #0 {
  %2 = alloca [4 x i32], align 16
  %3 = getelementptr inbounds nuw i8, ptr %0, i64 496
  %4 = load ptr, ptr %3, align 8, !tbaa !27
  call void @llvm.lifetime.start.p0(i64 16, ptr nonnull %2) #6
  call void @llvm.memset.p0.i64(ptr noundef nonnull align 16 dereferenceable(16) %2, i8 0, i64 16, i1 false)
  %5 = getelementptr inbounds nuw i8, ptr %0, i64 324
  %6 = load i32, ptr %5, align 4, !tbaa !37
  %7 = icmp sgt i32 %6, 0
  br i1 %7, label %.lr.ph, label %._crit_edge

.lr.ph:                                           ; preds = %1
  %8 = getelementptr inbounds nuw i8, ptr %0, i64 328
  %9 = getelementptr inbounds nuw i8, ptr %0, i64 128
  %10 = getelementptr inbounds nuw i8, ptr %4, i64 168
  br label %11

11:                                               ; preds = %.lr.ph, %30
  %12 = phi i32 [ %6, %.lr.ph ], [ %31, %30 ]
  %indvars.iv = phi i64 [ 0, %.lr.ph ], [ %indvars.iv.next, %30 ]
  %13 = getelementptr inbounds nuw [4 x ptr], ptr %8, i64 0, i64 %indvars.iv
  %14 = load ptr, ptr %13, align 8, !tbaa !32
  %15 = getelementptr inbounds nuw i8, ptr %14, i64 20
  %16 = load i32, ptr %15, align 4, !tbaa !38
  %17 = sext i32 %16 to i64
  %18 = getelementptr inbounds [4 x i32], ptr %2, i64 0, i64 %17
  %19 = load i32, ptr %18, align 4, !tbaa !50
  %.not = icmp eq i32 %19, 0
  br i1 %.not, label %20, label %30

20:                                               ; preds = %11
  %21 = getelementptr inbounds [4 x ptr], ptr %9, i64 0, i64 %17
  %22 = load ptr, ptr %21, align 8, !tbaa !32
  %23 = icmp eq ptr %22, null
  br i1 %23, label %24, label %26

24:                                               ; preds = %20
  %25 = tail call ptr @jpeg_alloc_huff_table(ptr noundef nonnull %0) #6
  store ptr %25, ptr %21, align 8, !tbaa !32
  br label %26

26:                                               ; preds = %24, %20
  %27 = phi ptr [ %25, %24 ], [ %22, %20 ]
  %28 = getelementptr inbounds [4 x ptr], ptr %10, i64 0, i64 %17
  %29 = load ptr, ptr %28, align 8, !tbaa !33
  tail call void @jpeg_gen_optimal_table(ptr noundef nonnull %0, ptr noundef %27, ptr noundef %29) #6
  store i32 1, ptr %18, align 4, !tbaa !50
  %.pre = load i32, ptr %5, align 4, !tbaa !37
  br label %30

30:                                               ; preds = %11, %26
  %31 = phi i32 [ %12, %11 ], [ %.pre, %26 ]
  %indvars.iv.next = add nuw nsw i64 %indvars.iv, 1
  %32 = sext i32 %31 to i64
  %33 = icmp slt i64 %indvars.iv.next, %32
  br i1 %33, label %11, label %._crit_edge, !llvm.loop !76

._crit_edge:                                      ; preds = %30, %1
  call void @llvm.lifetime.end.p0(i64 16, ptr nonnull %2) #6
  ret void
}